; Function Attrs: nounwind uwtable
define dso_local i64 @pg_convert_to(ptr noundef readonly captures(none) %0) local_unnamed_addr #0 {
  %2 = getelementptr inbounds nuw i8, ptr %0, i64 32
  %3 = load i64, ptr %2, align 8
  %4 = getelementptr inbounds nuw i8, ptr %0, i64 48
  %5 = load i64, ptr %4, align 8
  %6 = load ptr, ptr @DatabaseEncoding, align 8
  %7 = load ptr, ptr %6, align 8
  %8 = ptrtoint ptr %7 to i64
  %9 = tail call i64 @DirectFunctionCall1Coll(ptr noundef nonnull @namein, i32 noundef 0, i64 noundef %8) #13
  %10 = tail call i64 @DirectFunctionCall3Coll(ptr noundef nonnull @pg_convert, i32 noundef 0, i64 noundef %3, i64 noundef %9, i64 noundef %5) #13
  ret i64 %10
}